(lp0
F1.3875772953033447
aF1.3835647106170654
aF1.379570484161377
aF1.3757662773132324
aF1.371429681777954
aF1.3591911792755127
aF1.3393914699554443
aF1.3342487812042236
aF1.3013331890106201
aF1.2617297172546387
aF1.2336595058441162
aF1.1658315658569336
aF1.0980815887451172
aF1.0751293897628784
aF1.0180456638336182
aF0.9309479594230652
aF0.9431283473968506
aF0.8424691557884216
aF0.8381710052490234
aF0.825045108795166
aF0.8218410611152649
aF0.8315494656562805
aF0.8381859660148621
aF0.8404514193534851
aF0.8247042298316956
aF0.8086897730827332
aF0.819062352180481
aF0.798643171787262
aF0.7837055325508118
aF0.762708306312561
aF0.767289936542511
aF0.7653763294219971
aF0.748704731464386
aF0.729759931564331
aF0.7240217924118042
aF0.7423139810562134
aF0.6998417973518372
aF0.729754626750946
aF0.7186330556869507
aF0.746496319770813
aF0.729629397392273
aF0.7048342227935791
aF0.7126417756080627
aF0.6873351335525513
aF0.6808047890663147
aF0.681482195854187
aF0.687407374382019
aF0.6835609078407288
aF0.668722927570343
aF0.6767112612724304
aF0.6525955200195312
aF0.6501662731170654
aF0.644183874130249
aF0.6469724178314209
aF0.6265354156494141
aF0.6282065510749817
aF0.6277483105659485
aF0.6287736296653748
aF0.6124647855758667
aF0.6116328835487366
aF0.598067581653595
aF0.5994096994400024
aF0.5868086218833923
aF0.5710065960884094
aF0.579491913318634
aF0.5631747245788574
aF0.5496722459793091
aF0.5373052358627319
aF0.5303180813789368
aF0.514905571937561
aF0.5042571425437927
aF0.48698657751083374
aF0.4779837727546692
aF0.4617528021335602
aF0.4481775760650635
aF0.426387220621109
aF0.42484474182128906
aF0.41081947088241577
aF0.39717578887939453
aF0.36251309514045715
aF0.3453686833381653
aF0.3276689052581787
aF0.3115042746067047
aF0.2706410586833954
aF0.2742879092693329
aF0.25840866565704346
aF0.2533212900161743
aF0.23390132188796997
aF0.22204266488552094
aF0.2154771089553833
aF0.20678460597991943
aF0.18013378977775574
aF0.16347023844718933
aF0.13422034680843353
aF0.15386924147605896
aF0.10831282287836075
aF0.11662634462118149
aF0.10187157988548279
aF0.10634273290634155
aF0.09260480850934982
aF0.08674290776252747
aF0.08205194026231766
aF0.07366377115249634
aF0.06201224774122238
aF0.05324500426650047
aF0.04545242339372635
aF0.03931790217757225
aF0.04081033170223236
aF0.04516778886318207
aF0.033401310443878174
aF0.031725700944662094
aF0.029486794024705887
aF0.030604427680373192
aF0.023240147158503532
aF0.021935192868113518
aF0.01843233034014702
aF0.018972747027873993
aF0.01646076701581478
aF0.01865127682685852
aF0.014189068228006363
aF0.013995903544127941
aF0.012158950790762901
aF0.013195035979151726
aF0.01178860105574131
aF0.011712011881172657
aF0.010635127313435078
aF0.010105794295668602
aF0.00852893479168415
aF0.008028585463762283
aF0.018583280965685844
aF0.009530088864266872
aF0.028448034077882767
aF0.007879427634179592
aF0.008891807869076729
aF0.008066910319030285
aF0.008162986487150192
aF0.009163753129541874
aF0.009055227972567081
aF0.014349876902997494
aF0.007585725747048855
aF0.007250951603055
aF0.008480030111968517
aF0.005915137007832527
aF0.0104060685262084
aF0.006955335382372141
aF0.009152090176939964
aF0.004901427775621414
aF0.005908522289246321
aF0.004695471376180649
aF0.00633195647969842
aF0.007447757758200169
aF0.006609044503420591
aF0.004463003482669592
aF0.00600019097328186
aF0.005479572340846062
aF0.005031921900808811
aF0.0032328800298273563
aF0.010619115084409714
aF0.008937837556004524
aF0.005001955199986696
aF0.002507047960534692
aF0.003997361287474632
aF0.004246626980602741
aF0.003376961685717106
aF0.004679519683122635
aF0.003881270531564951
aF0.0035326583310961723
aF0.0042517040856182575
aF0.003941067028790712
aF0.004344892222434282
aF0.002746082376688719
aF0.0070175835862755775
aF0.0033622686751186848
aF0.0033718328922986984
aF0.0041578710079193115
aF0.0030948009807616472
aF0.00482431473210454
aF0.005803594831377268
aF0.005177431274205446
aF0.003185559995472431
aF0.003908488899469376
aF0.0029319808818399906
aF0.0030388133600354195
aF0.003219884354621172
aF0.002310182200744748
aF0.002780062146484852
aF0.003110905410721898
aF0.00210654828697443
aF0.004759182222187519
aF0.00517925713211298
aF0.0025667755398899317
aF0.0031368951313197613
aF0.004282196052372456
aF0.004885233473032713
aF0.0028179369401186705
aF0.003863536985591054
aF0.0028032001573592424
aF0.00243809400126338
aF0.004813116975128651
aF0.002872006269171834
aF0.0015726792626082897
aF0.0032871016301214695
aF0.0020516412332654
aF0.0034620780497789383
aF0.00426775636151433
aF0.003150490578263998
aF0.003529458772391081
aF0.001571805332787335
aF0.004944831132888794
aF0.007419314235448837
aF0.003622331190854311
aF0.002301934640854597
aF0.00424003042280674
aF0.003618411486968398
aF0.0024780440144240856
aF0.002928837900981307
aF0.003259986871853471
aF0.0049133338034152985
aF0.004192876163870096
aF0.004138633143156767
aF0.006685925647616386
aF0.004710365552455187
aF0.0038830386474728584
aF0.003162176813930273
aF0.010397600941359997
aF0.0034594624303281307
aF0.0033495957031846046
aF0.0025526774115860462
aF0.012318446300923824
aF0.0032985482830554247
aF0.002692578127607703
aF0.011203516274690628
aF0.004035058431327343
aF0.0027436260133981705
aF0.0031324601732194424
aF0.004726317711174488
aF0.002916925586760044
aF0.01098512765020132
aF0.004038989078253508
aF0.004554332233965397
aF0.003565052058547735
aF0.010395464487373829
aF0.0020363088697195053
aF0.0019450075924396515
aF0.011505024507641792
aF0.012354032136499882
aF0.0027021325659006834
aF0.006445338949561119
aF0.004395233932882547
aF0.006447988096624613
aF0.007047969847917557
aF0.008617226034402847
aF0.002596762729808688
aF0.0027024492155760527
aF0.004166469443589449
aF0.0021163420751690865
aF0.004000518471002579
aF0.004114688374102116
aF0.0075614312663674355
aF0.003907347097992897
aF0.006904891692101955
aF0.002121588448062539
aF0.003400398651137948
aF0.0035478004720062017
aF0.004964092280715704
aF0.0017233474645763636
aF0.0025247600860893726
aF0.003225560300052166
aF0.0016345535404980183
aF0.01133773848414421
aF0.001363116898573935
aF0.003895864821970463
aF0.004314924590289593
aF0.005847112275660038
aF0.0071061598137021065
aF0.0027115780394524336
aF0.0017137584509328008
aF0.0011240956373512745
aF0.0013808063231408596
aF0.0014460108941420913
aF0.0026735158171504736
aF0.007354340981692076
aF0.0033073551021516323
aF0.0009556623990647495
aF0.003940626513212919
aF0.0022929110564291477
aF0.0010764827020466328
aF0.002350969472900033
aF0.004353996366262436
aF0.0023684464395046234
aF0.00374481244944036
aF0.0032217458356171846
aF0.004107044078409672
aF0.0038623842410743237
aF0.0020902168471366167
aF0.009035896509885788
aF0.0022460955660790205
aF0.008572658523917198
aF0.002355006756260991
aF0.002672431990504265
aF0.0036018637474626303
aF0.003935153130441904
aF0.005362622905522585
aF0.005398539826273918
aF0.009479513391852379
aF0.010563263669610023
aF0.010556473396718502
aF0.0014261715114116669
aF0.001055621076375246
aF0.0011274083517491817
aF0.013581568375229836
aF0.0007887680549174547
aF0.0018213395960628986
aF0.0031658238731324673
aF0.003011351218447089
aF0.001982680056244135
aF0.0022057793103158474
aF0.002478005364537239
aF0.003168840892612934
aF0.0020857842173427343
aF0.0027491189539432526
aF0.016712620854377747
aF0.020609918981790543
aF0.0029964724089950323
aF0.005616775713860989
aF0.004621909931302071
aF0.00990669708698988
aF0.008754623122513294
aF0.009134724736213684
aF0.005545443389564753
aF0.022935960441827774
aF0.04229999706149101
aF0.016371674835681915
aF0.008119083009660244
aF0.022071989253163338
aF0.007297444622963667
aF0.003410403383895755
aF0.0032893733587116003
aF0.001073115854524076
aF0.0025263382121920586
aF0.0012180396588519216
aF0.0013656908413395286
aF0.0016632645856589079
aF0.000813143327832222
aF0.04784538969397545
aF0.005023696925491095
aF0.0015152686974033713
aF0.00268495362251997
aF0.004522354807704687
aF0.005809714086353779
aF0.006656678859144449
aF0.005476840306073427
aF0.004328726325184107
aF0.008433740586042404
aF0.005701038055121899
aF0.001675085281021893
aF0.0016950976569205523
aF0.0012429821072146297
aF0.002184558194130659
aF0.002755796303972602
aF0.05943767726421356
aF0.001507063745521009
aF0.00199295487254858
aF0.0023058180231601
aF0.010242480784654617
aF0.01707742176949978
aF0.017111370339989662
aF0.0029251270461827517
aF0.02556079626083374
aF0.02670341357588768
aF0.0037547224201261997
aF0.01317418273538351
aF0.01022172998636961
aF0.0070284768007695675
aF0.0011195800034329295
aF0.003570663509890437
aF0.009484059177339077
aF0.0031305511947721243
aF0.003671888494864106
aF0.041229553520679474
aF0.016442539170384407
aF0.001391019904986024
aF0.0020453790202736855
aF0.0012302210088819265
aF0.0029682149179279804
aF0.10314512252807617
aF0.0010958256898447871
aF0.0015071261441335082
aF0.0046591730788350105
aF0.018008312210440636
aF0.009738230146467686
aF0.011423514224588871
aF0.007382184267044067
aF0.007110096979886293
aF0.12759600579738617
aF0.01611204259097576
aF0.0011333753354847431
aF0.010286888107657433
aF0.003709872718900442
aF0.011512679047882557
aF0.07952315360307693
aF0.10687370598316193
aF0.011033128947019577
aF0.10213671624660492
aF0.006534222979098558
aF0.02171969786286354
aF0.17627695202827454
aF0.00786341167986393
aF0.0076908934861421585
aF0.002542873378843069
aF0.026520252227783203
aF0.0013612653128802776
aF0.0013544607209041715
aF0.0028796300757676363
aF0.028966020792722702
aF0.0009400728740729392
aF0.04787376895546913
aF0.0011627133935689926
aF0.0014545402955263853
aF0.0020841634832322598
aF0.011555517092347145
aF0.006057295482605696
aF0.005373112391680479
aF0.004042779095470905
aF0.027553701773285866
aF0.021142717450857162
aF0.014302369207143784
aF0.008631763979792595
aF0.03808856010437012
aF0.016814617440104485
aF0.01245790533721447
aF0.0024462162982672453
aF0.0017714264104142785
aF0.0055383844301104546
aF0.03211156278848648
aF0.0026622703298926353
aF0.0053594354540109634
aF0.001069538528099656
aF0.001087284297682345
aF0.06841454654932022
aF0.013354147784411907
aF0.011967157945036888
aF0.16917598247528076
aF0.0015172070125117898
aF0.0031775562092661858
aF0.0010619828244671226
aF0.0002396063064225018
aF0.00954429805278778
aF0.005796062294393778
aF0.17997977137565613
aF0.0004244815791025758
aF0.0034879236482083797
aF0.003783274907618761
aF0.004780421033501625
aF0.017211515456438065
aF0.09069424122571945
aF0.024179676547646523
aF0.04465140029788017
aF0.005288940388709307
aF0.07373619824647903
aF0.00037184529355727136
aF0.00015453770174644887
aF0.00010471393761690706
aF0.025474580004811287
aF5.48314128536731e-05
aF9.944478733814321e-06
aF0.00036319842911325395
aF0.22264406085014343
aF0.0010246324818581343
aF0.0008295838488265872
aF0.0003513275005389005
aF0.0006979362806305289
aF0.0013178347144275904
aF0.0063567087054252625
aF0.055657677352428436
aF0.06597313284873962
aF0.0056883469223976135
aF0.007404899690300226
aF0.028185304254293442
aF0.006569306831806898
aF0.4510575830936432
aF0.0001741792802931741
aF0.009109153412282467
aF0.24679945409297943
aF0.046148259192705154
aF0.3067816495895386
aF0.17694281041622162
aF0.0005055062938481569
aF0.0010903311194851995
aF0.1579926759004593
aF0.003949095960706472
aF0.046777233481407166
aF0.009370936080813408
aF0.024006592109799385
aF0.06855503469705582
aF0.034332241863012314
aF0.13744032382965088
aF0.005702771712094545
aF0.0005384458345361054
aF0.009167223237454891
aF0.17765118181705475
aF0.002937439363449812
aF0.05192650854587555
aF0.0024827925954014063
aF0.0025176911149173975
aF0.0011534766526892781
aF0.05179445818066597
aF0.0020117226522415876
aF0.0005834974581375718
aF0.0007052826113067567
aF0.0018901248695328832
aF0.011616850271821022
aF0.0037388333585113287
aF0.0032986290752887726
aF0.004427715204656124
aF0.002356430049985647
aF0.06102220341563225
aF0.002210342325270176
aF0.00502585107460618
aF0.009085454978048801
aF0.002927057910710573
aF0.14243930578231812
aF0.15880441665649414
aF0.010800899006426334
aF0.004617802798748016
aF0.1598832607269287
aF0.002667551627382636
aF0.0036194021813571453
aF0.00397722190245986
aF0.00659496383741498
aF0.06709568947553635
aF0.46812567114830017
aF0.004566955380141735
aF0.0027130097150802612
aF0.0028656022623181343
aF0.004075001925230026
aF0.02687501534819603
aF0.09481793642044067
aF0.003022732213139534
aF0.004232860170304775
aF0.0025051471311599016
aF0.01657067984342575
aF0.003622867399826646
aF0.003035485278815031
aF0.013617846183478832
aF0.039321281015872955
aF0.0019091017311438918
aF0.006018711254000664
aF0.001885662437416613
aF0.004601951688528061
aF0.0026980405673384666
aF0.004820047877728939
aF0.006081429310142994
aF0.0035584091674536467
aF0.04047175869345665
aF0.2929803133010864
aF0.0015749826561659575
aF0.001853213645517826
aF0.0006836748798377812
aF0.07862895727157593
aF0.0003802855499088764
aF0.001185702160000801
aF0.008436172269284725
aF0.010836032219231129
aF0.01889266073703766
aF0.0024790624156594276
aF0.0014668898656964302
aF0.00015278573846444488
aF0.007207455113530159
aF0.00042566293268464506
aF0.00150787690654397
aF0.01091877929866314
aF0.0006402357248589396
aF0.0010278578847646713
aF0.03935965895652771
aF0.0025787579361349344
aF0.004128357395529747
aF0.01347318571060896
aF0.0011981346178799868
aF0.021799413487315178
aF0.0050367568619549274
aF0.0020698467269539833
aF0.003863167017698288
aF0.0018173754215240479
aF0.0029454785399138927
aF0.011956103146076202
aF0.0028566885739564896
aF0.011486784555017948
aF0.005308796651661396
aF0.005530392751097679
aF0.0035262408200651407
aF0.003359954571351409
aF0.01606140285730362
aF0.003449714742600918
aF0.002172360895201564
aF0.0013322370359674096
aF0.05571376904845238
aF0.0010247343452647328
aF0.0028291954658925533
aF0.0018972158432006836
aF0.003161329310387373
aF0.0029119064565747976
aF0.011648179963231087
aF0.012105822563171387
aF0.003465892281383276
aF0.0018991264514625072
aF0.009627376683056355
aF0.0036240695044398308
aF0.0009558480232954025
aF0.020169485360383987
aF0.0008361181826330721
aF0.004296432714909315
aF0.008829804137349129
aF0.019334690645337105
aF0.1898816078901291
aF0.001925752148963511
aF0.0004919706843793392
aF0.000510149635374546
aF0.0004328829818405211
aF0.0002436461072647944
aF0.06849996000528336
aF0.02679288573563099
aF0.001962836366146803
aF0.0008439094526693225
aF0.02972736768424511
aF0.004612237215042114
aF0.003366791643202305
aF0.0016773983370512724
aF0.0012595865409821272
aF0.0020501716062426567
aF0.010340796783566475
aF0.015032900497317314
aF0.0034551408607512712
aF0.05224505811929703
aF0.0026529657188802958
aF0.006264377385377884
aF0.1368294060230255
aF0.03198116272687912
aF0.017357898876070976
aF0.011876835487782955
aF0.03544384613633156
aF0.16384319961071014
aF0.005595618858933449
aF0.0022165069822221994
aF0.0016546035185456276
aF0.013291136361658573
aF0.04857045039534569
aF0.056439243257045746
aF0.003918741829693317
aF0.10393498092889786
aF0.1555032581090927
aF0.09602572023868561
aF0.14709071815013885
aF0.09430591762065887
aF0.08225131034851074
aF0.04371168464422226
aF0.004553823731839657
aF0.23409128189086914
aF0.0012717401841655374
aF0.037400878965854645
aF0.0022742459550499916
aF0.0073480382561683655
aF7.525957335019484e-05
aF0.0022953907027840614
aF0.2158026546239853
aF0.05893212929368019
aF0.09259433299303055
aF0.01715843938291073
aF0.3005792200565338
aF0.008699128404259682
aF0.006773476023226976
aF0.05335593596100807
aF0.0057530878111720085
aF0.05252298340201378
aF0.005102135241031647
aF0.003933216445147991
aF0.005051343236118555
aF0.0036180594470351934
aF0.021622098982334137
aF0.03853373974561691
aF0.01550858560949564
aF0.008188474923372269
aF0.007473163306713104
aF0.019778985530138016
aF0.009452149271965027
aF0.024421818554401398
aF0.0013066859683021903
aF0.004100903868675232
aF0.005387411452829838
aF0.002141170669347048
aF0.009854773990809917
aF0.008062349632382393
aF0.008645582012832165
aF0.018490495160222054
aF0.014955135062336922
aF0.016382422298192978
aF0.025020776316523552
aF0.010648500174283981
aF0.008458091877400875
aF0.0032738058362156153
aF0.018513215705752373
aF0.014368094503879547
aF0.006663522217422724
aF0.0015032405499368906
aF0.006724502891302109
aF0.0024740220978856087
aF0.06692931801080704
aF0.0026159649714827538
aF0.010050419718027115
aF0.06297758221626282
aF0.03618317469954491
aF0.006353919859975576
aF0.019660471007227898
aF0.018678933382034302
aF0.009980743750929832
aF0.010866943746805191
aF0.013911803252995014
aF0.010390577837824821
aF0.0025471060071140528
aF0.003106063697487116
aF0.0008437080541625619
aF0.004905878100544214
aF0.007525896653532982
aF0.0005870476015843451
aF0.04004552960395813
aF0.003501754254102707
aF0.006740075536072254
aF0.005967793986201286
aF0.015320017002522945
aF0.00014915979409124702
aF0.032664164900779724
aF0.00018237328913528472
aF0.0031128881964832544
aF0.2980257570743561
aF0.0093607809394598
aF0.013807924464344978
aF0.0038477464113384485
aF0.03679494187235832
aF0.22324426472187042
aF0.019247589632868767
aF0.00823176745325327
aF0.004828393459320068
aF0.008460893295705318
aF0.00029334414284676313
aF0.0001386230724165216
aF0.00015411606000270694
aF0.0015859632985666394
aF0.00017542204295750707
aF0.0001079408684745431
aF0.02722061052918434
aF0.19177353382110596
aF0.00024405919248238206
aF0.0005521044367924333
aF0.0002867609146051109
aF0.0012863192241638899
aF0.002881334163248539
aF0.002665438922122121
aF0.002369365654885769
aF0.2544197738170624
aF0.003441941225901246
aF0.033193256705999374
aF0.011878736317157745
aF0.001184568158350885
aF0.00018185636145062745
aF0.005568517372012138
aF0.00010360845772083849
aF2.1609019313473254e-05
aF0.0009569117682985961
aF0.14126574993133545
aF0.05516135320067406
aF0.00010229164035990834
aF0.009189829230308533
aF0.00042696401942521334
aF0.00030445735319517553
aF0.002277080435305834
aF0.01045255921781063
aF0.004894913639873266
aF0.01549395639449358
aF0.009550454095005989
aF0.09960177540779114
aF0.003000049851834774
aF0.005289386957883835
aF0.0017854470061138272
aF0.025474734604358673
aF0.004864376038312912
aF0.01857583411037922
aF0.04356151446700096
aF0.08296571671962738
aF0.0034433510154485703
aF0.02302032895386219
aF0.006334982812404633
aF0.149429053068161
aF0.22761425375938416
aF0.008928371593356133
aF0.017285186797380447
aF0.03278438001871109
aF0.07344725728034973
aF0.0640905499458313
aF0.02194049395620823
aF0.0005169645883142948
aF0.07463657855987549
aF0.0014356644824147224
aF0.004158181603997946
aF0.00175467727240175
aF0.006856806576251984
aF0.0021485919132828712
aF0.010742909274995327
aF0.0121463593095541
aF0.005816154181957245
aF0.0522126741707325
aF0.7140124440193176
aF0.012707008048892021
aF0.07792668789625168
aF0.011943692341446877
aF0.0043731979094445705
aF0.0002086795720970258
aF5.562626392929815e-05
aF0.000699040072504431
aF0.02235395275056362
aF0.018925340846180916
aF0.050041504204273224
aF0.00011066391016356647
aF0.00041810524999164045
aF7.67960591474548e-05
aF0.05326313525438309
aF0.001699443208053708
aF0.003414314240217209
aF0.003279640804976225
aF0.001984578790143132
aF0.10577809065580368
aF0.5888973474502563
aF0.00544958608224988
aF0.0025149418506771326
aF0.0004756891285069287
aF0.0030463384464383125
aF0.0003902340540662408
aF0.08238817006349564
aF0.001611044630408287
aF0.011599062941968441
aF0.00021866965107619762
aF0.0003024008765351027
aF0.00030786858405917883
aF0.02437174692749977
aF0.0013286336325109005
aF0.0010259740520268679
aF0.0003801163111347705
aF0.0008274829015135765
aF0.0010472772410139441
aF0.01772492192685604
aF0.007320995442569256
aF0.0030492821242660284
aF0.002346038119867444
aF0.0006410619826056063
aF0.0060218386352062225
aF0.0012754801427945495
aF0.03067162074148655
aF0.004743989557027817
aF0.00624450296163559
aF0.0014115585945546627
aF0.0002920706756412983
aF0.012605867348611355
aF0.0008556553511880338
aF0.005049942061305046
aF0.020853254944086075
aF0.03915831074118614
aF0.030249863862991333
aF0.04941307380795479
aF0.009590263478457928
aF0.00921798124909401
aF0.04690896347165108
aF0.027074038982391357
aF0.04760166257619858
aF0.005757968407124281
aF0.008851773105561733
aF0.00600452721118927
aF0.016130663454532623
aF0.13209861516952515
aF0.008995970711112022
aF0.03027772158384323
aF0.025823649019002914
aF0.0180831179022789
aF0.03892537206411362
aF0.007492642849683762
aF0.035026274621486664
aF0.04260391741991043
aF0.020122643560171127
aF0.16358593106269836
aF0.016310684382915497
aF0.272015780210495
aF0.0033185461070388556
aF0.09273131936788559
aF0.06415245682001114
aF0.1626833975315094
aF0.0076377661898732185
aF0.010551761835813522
aF0.056589577347040176
aF0.18172511458396912
aF0.016731059178709984
aF0.05441683158278465
aF0.02735227346420288
aF0.02257358282804489
aF0.09143026173114777
aF0.003008979605510831
aF0.01388341560959816
aF0.0005407108692452312
aF0.022657213732600212
aF0.12493487447500229
aF0.002504854928702116
aF0.0008471464971080422
aF0.002216363325715065
aF0.27088218927383423
aF0.0006436837138608098
aF0.0008206607890315354
aF0.025028109550476074
aF0.9691465497016907
aF0.031200427561998367
aF0.2783164978027344
aF0.004828468896448612
aF0.004406822845339775
aF0.00014458762598223984
aF9.967517689801753e-05
aF7.460243068635464e-05
aF0.002031360985711217
aF0.06224776804447174
aF0.0422004759311676
aF0.16387303173542023
aF0.011277826502919197
aF0.0008100992999970913
aF0.0023712271358817816
aF0.250093013048172
aF0.0020570727065205574
aF0.010819205082952976
aF0.0014789024135097861
aF0.08667472004890442
aF0.0030167261138558388
aF0.012808379717171192
aF0.003978272899985313
aF0.039202041923999786
aF0.00767680024728179
aF0.02340097166597843
aF0.04739481210708618
aF0.0054344795644283295
aF0.0010004168143495917
aF0.00604582903906703
aF0.00043303307029418647
aF0.0004275983083061874
aF0.031076151877641678
aF0.02751205489039421
aF0.05172431468963623
aF0.021551864221692085
aF0.0007232099305838346
aF0.022307557985186577
aF0.00020924168347846717
aF0.018787654116749763
aF0.11599944531917572
aF0.024460850283503532
aF0.011085367761552334
aF0.001594408298842609
aF0.0005707484669983387
aF0.0627894401550293
aF0.008053706027567387
aF0.026751721277832985
aF0.0029805228114128113
aF0.0010903823422268033
aF0.0037664081901311874
aF0.0061297970823943615
aF0.020278727635741234
aF0.015180923044681549
aF0.001117113046348095
aF0.018072830513119698
aF0.002468576654791832
aF0.0008173395763151348
aF0.03783789277076721
aF0.0021770866587758064
aF0.004737124778330326
aF0.00017285687499679625
aF0.0016509211855009198
aF0.0019960871431976557
aF0.03323746100068092
aF0.0005599303403869271
aF0.001720569096505642
aF0.007098628208041191
aF0.0007898601470515132
aF0.0014193459646776319
aF0.03853297978639603
aF0.003707722993567586
aF0.000664604885969311
aF0.0005723137292079628
aF0.00019637364312075078
aF0.00036578631261363626
aF0.014782757498323917
aF0.0008855674532242119
aF0.003899416420608759
aF0.002294482896104455
aF0.009609134867787361
aF0.005805589258670807
aF0.0030525755137205124
aF0.0006325441063381732
aF0.005312983877956867
aF0.0019183254335075617
a.